; Function Attrs: mustprogress nounwind uwtable
define hidden noundef zeroext i1 @_ZN26AssertionPredicateWithHalt8has_haltEPK4Node(ptr noundef nonnull %0) local_unnamed_addr #0 align 2 {
  %2 = tail call noundef ptr @_ZNK8ProjNode13other_if_projEv(ptr noundef nonnull align 8 dereferenceable(57) %0) #8
  %3 = getelementptr inbounds i8, ptr %2, i64 32
  %4 = load i32, ptr %3, align 8
  %5 = icmp eq i32 %4, 1
  br i1 %5, label %6, label %14

6:                                                ; preds = %1
  %7 = getelementptr inbounds i8, ptr %2, i64 16
  %8 = load ptr, ptr %7, align 8
  %9 = load ptr, ptr %8, align 8
  %10 = load ptr, ptr %9, align 8
  %11 = load ptr, ptr %10, align 8
  %12 = tail call noundef i32 %11(ptr noundef nonnull align 8 dereferenceable(52) %9) #8
  %13 = icmp eq i32 %12, 175
  br label %14

14:                                               ; preds = %6, %1
  %15 = phi i1 [ false, %1 ], [ %13, %6 ]
  ret i1 %15
}